; Function Attrs: mustprogress uwtable
define dso_local void @_ZN5vcpkg13BGMessageSink7printlnERKNS_11MessageLineE(ptr noundef nonnull align 8 dereferenceable(88) %0, ptr noundef nonnull align 8 dereferenceable(24) %1) unnamed_addr #0 align 2 personality ptr @__gxx_personality_v0 {
  %3 = getelementptr inbounds nuw i8, ptr %0, i64 16
  %4 = tail call noundef i32 @pthread_mutex_lock(ptr noundef nonnull align 8 dereferenceable(40) %3) #21
  %.not.i.i = icmp eq i32 %4, 0
  br i1 %.not.i.i, label %_ZNSt10lock_guardISt5mutexEC2ERS0_.exit, label %5

5:                                                ; preds = %2
  tail call void @_ZSt20__throw_system_errori(i32 noundef %4) #23
  unreachable

_ZNSt10lock_guardISt5mutexEC2ERS0_.exit:          ; preds = %2
  %6 = getelementptr inbounds nuw i8, ptr %0, i64 80
  %7 = load i8, ptr %6, align 8, !tbaa !41, !range !51, !noundef !52
  %8 = trunc nuw i8 %7 to i1
  br i1 %8, label %9, label %17

9:                                                ; preds = %_ZNSt10lock_guardISt5mutexEC2ERS0_.exit
  %10 = getelementptr inbounds nuw i8, ptr %0, i64 8
  %11 = load ptr, ptr %10, align 8, !tbaa !53
  %12 = load ptr, ptr %11, align 8, !tbaa !30
  %13 = load ptr, ptr %12, align 8
  invoke void %13(ptr noundef nonnull align 8 dereferenceable(8) %11, ptr noundef nonnull align 8 dereferenceable(24) %1)
          to label %19 unwind label %14

14:                                               ; preds = %17, %9
  %15 = landingpad { ptr, i32 }
          cleanup
  %16 = tail call noundef i32 @pthread_mutex_unlock(ptr noundef nonnull align 8 dereferenceable(40) %3) #21
  resume { ptr, i32 } %15

17:                                               ; preds = %_ZNSt10lock_guardISt5mutexEC2ERS0_.exit
  %18 = getelementptr inbounds nuw i8, ptr %0, i64 56
  invoke void @_ZNSt6vectorIN5vcpkg11MessageLineESaIS1_EE9push_backERKS1_(ptr noundef nonnull align 8 dereferenceable(24) %18, ptr noundef nonnull align 8 dereferenceable(24) %1)
          to label %19 unwind label %14

19:                                               ; preds = %17, %9
  %20 = tail call noundef i32 @pthread_mutex_unlock(ptr noundef nonnull align 8 dereferenceable(40) %3) #21
  ret void
}